; Function Attrs: mustprogress uwtable
define void @_ZN3gmx20AnalysisNeighborhoodC2Ev(ptr noundef nonnull writeonly align 8 captures(none) dereferenceable(8) initializes((0, 8)) %0) unnamed_addr #16 align 2 personality ptr @__gxx_personality_v0 {
  %2 = tail call noalias noundef nonnull dereferenceable(88) ptr @_Znwm(i64 noundef 88) #41
  %3 = getelementptr inbounds nuw i8, ptr %2, i64 72
  store ptr null, ptr %3, align 8, !tbaa !213
  %4 = getelementptr inbounds nuw i8, ptr %2, i64 80
  store i32 0, ptr %4, align 8, !tbaa !214
  %5 = getelementptr inbounds nuw i8, ptr %2, i64 84
  store i8 0, ptr %5, align 4, !tbaa !215
  tail call void @llvm.memset.p0.i64(ptr noundef nonnull align 8 dereferenceable(85) %2, i8 0, i64 68, i1 false)
  store ptr %2, ptr %0, align 8, !tbaa !216
  ret void
}